; Function Attrs: mustprogress uwtable
define hidden void @_ZN4cvc58internal6theory5arith6linear11DenseVector5printERSoRKNS0_8DenseMapINS0_8RationalEEE(ptr noundef nonnull align 8 dereferenceable(8) %0, ptr noundef nonnull readonly align 8 captures(none) dereferenceable(72) %1) local_unnamed_addr #13 align 2 {
  %3 = tail call noundef nonnull align 8 dereferenceable(8) ptr @_ZSt16__ostream_insertIcSt11char_traitsIcEERSt13basic_ostreamIT_T0_ES6_PKS3_l(ptr noundef nonnull align 8 dereferenceable(8) %0, ptr noundef nonnull @.str.34, i64 noundef 14)
  %4 = getelementptr inbounds nuw i8, ptr %1, i64 8
  %5 = load ptr, ptr %4, align 8, !tbaa !175
  %6 = load ptr, ptr %1, align 8, !tbaa !173
  %7 = ptrtoint ptr %5 to i64
  %8 = ptrtoint ptr %6 to i64
  %9 = sub i64 %7, %8
  %10 = ashr exact i64 %9, 2
  %11 = tail call noundef nonnull align 8 dereferenceable(8) ptr @_ZNSo9_M_insertImEERSoT_(ptr noundef nonnull align 8 dereferenceable(8) %0, i64 noundef %10)
  %12 = load ptr, ptr %1, align 8, !tbaa !172
  %13 = load ptr, ptr %4, align 8, !tbaa !172
  %.not12 = icmp eq ptr %12, %13
  br i1 %.not12, label %._crit_edge, label %.lr.ph

.lr.ph:                                           ; preds = %2
  %14 = getelementptr inbounds nuw i8, ptr %1, i64 48
  br label %15

15:                                               ; preds = %.lr.ph, %15
  %.sroa.09.013 = phi ptr [ %12, %.lr.ph ], [ %24, %15 ]
  %16 = load i32, ptr %.sroa.09.013, align 4, !tbaa !13
  %17 = tail call noundef nonnull align 8 dereferenceable(8) ptr @_ZSt16__ostream_insertIcSt11char_traitsIcEERSt13basic_ostreamIT_T0_ES6_PKS3_l(ptr noundef nonnull align 8 dereferenceable(8) %0, ptr noundef nonnull @.str.2, i64 noundef 2)
  %18 = zext i32 %16 to i64
  %19 = tail call noundef nonnull align 8 dereferenceable(8) ptr @_ZNSo9_M_insertImEERSoT_(ptr noundef nonnull align 8 dereferenceable(8) %0, i64 noundef %18)
  %20 = tail call noundef nonnull align 8 dereferenceable(8) ptr @_ZSt16__ostream_insertIcSt11char_traitsIcEERSt13basic_ostreamIT_T0_ES6_PKS3_l(ptr noundef nonnull align 8 dereferenceable(8) %19, ptr noundef nonnull @.str, i64 noundef 1)
  %21 = load ptr, ptr %14, align 8, !tbaa !194
  %22 = getelementptr inbounds nuw %"class.cvc5::internal::Rational", ptr %21, i64 %18
  %23 = tail call noundef nonnull align 8 dereferenceable(8) ptr @_ZN4cvc58internallsERSoRKNS0_8RationalE(ptr noundef nonnull align 8 dereferenceable(8) %19, ptr noundef nonnull align 8 dereferenceable(32) %22)
  %24 = getelementptr inbounds nuw i8, ptr %.sroa.09.013, i64 4
  %.not = icmp eq ptr %24, %13
  br i1 %.not, label %._crit_edge, label %15, !llvm.loop !197

._crit_edge:                                      ; preds = %15, %2
  %25 = tail call noundef nonnull align 8 dereferenceable(8) ptr @_ZSt16__ostream_insertIcSt11char_traitsIcEERSt13basic_ostreamIT_T0_ES6_PKS3_l(ptr noundef nonnull align 8 dereferenceable(8) %0, ptr noundef nonnull @.str.3, i64 noundef 1)
  ret void
}